target datalayout = "e-m:e-p270:32:32-p271:32:32-p272:64:64-i64:64-i128:128-f80:128-n8:16:32:64-S128"
target triple = "x86_64-pc-linux-gnu"

%struct.connectdata = type { %struct.Curl_llist_node, ptr, ptr, i64, ptr, i64, ptr, ptr, %struct.hostname, ptr, ptr, %struct.hostname, %struct.proxy_info, %struct.proxy_info, %struct.ip_quadruple, %struct.ip_quadruple, ptr, ptr, ptr, ptr, ptr, %struct.curltime, %struct.curltime, %struct.curltime, [2 x i32], [2 x ptr], [2 x ptr], [2 x ptr], %struct.anon, %struct.easy_pollset, %struct.ssl_primary_config, %struct.ssl_primary_config, %struct.ConnectBits, ptr, ptr, %struct.curltime, i32, i32, %struct.Curl_llist, i32, i32, %struct.ntlmdata, %struct.ntlmdata, %union.anon.1, ptr, ptr, i16, i32, i32, i32, i32, i16, i16, i8, i8, i8, i8, i8, i8, i8 }
%struct.Curl_llist_node = type { ptr, ptr, ptr, ptr }
%struct.hostname = type { ptr, ptr, ptr, ptr }
%struct.proxy_info = type { %struct.hostname, i32, i8, ptr, ptr }
%struct.ip_quadruple = type { [46 x i8], [46 x i8], i32, i32 }
%struct.anon = type { [2 x %struct.curltime], i32 }
%struct.easy_pollset = type { [5 x i32], i32, [5 x i8] }
%struct.ssl_primary_config = type { ptr, ptr, ptr, ptr, ptr, ptr, ptr, ptr, ptr, ptr, ptr, ptr, ptr, ptr, i8, i32, i8, i8 }
%struct.ConnectBits = type { i64 }
%struct.curltime = type { i64, i32 }
%struct.Curl_llist = type { ptr, ptr, ptr, i64 }
%struct.ntlmdata = type { i32, [8 x i8], i32, ptr }
%union.anon.1 = type { %struct.ftp_conn }
%struct.ftp_conn = type { %struct.pingpong, ptr, ptr, ptr, ptr, ptr, ptr, ptr, i8, i64, ptr, i64, i32, i32, i32, i32, i32, i16, i8, i8, i8, i8, i8 }
%struct.pingpong = type { i64, i8, ptr, i64, i64, %struct.curltime, i64, %struct.dynbuf, %struct.dynbuf, i64, i64, ptr, ptr }
%struct.dynbuf = type { ptr, i64, i64, i64 }
%struct.Curl_easy = type { i32, i64, i64, ptr, %struct.Curl_llist_node, %struct.Curl_llist_node, i32, i32, %struct.Curl_message, %struct.easy_pollset, %struct.Names, ptr, ptr, ptr, ptr, %struct.SingleRequest, %struct.UserDefined, ptr, ptr, ptr, %struct.Progress, %struct.UrlState, ptr, %struct.PureInfo, %struct.curl_tlssessioninfo }
%struct.Curl_message = type { %struct.Curl_llist_node, %struct.CURLMsg }
%struct.CURLMsg = type { i32, ptr, %union.anon }
%union.anon = type { ptr }
%struct.Names = type { ptr, i32 }
%struct.SingleRequest = type <{ i64, i64, i64, i64, %struct.curltime, i32, i32, i32, i32, i64, i32, i32, i8, i8, [2 x i8], i32, ptr, ptr, %struct.bufq, i64, i64, ptr, ptr, %union.anon.0, ptr, i8, i32, [3 x i8] }>
%struct.bufq = type { ptr, ptr, ptr, ptr, i64, i64, i64, i32 }
%union.anon.0 = type { ptr }
%struct.UserDefined = type <{ ptr, ptr, ptr, ptr, ptr, ptr, i64, i64, i64, ptr, ptr, i64, ptr, ptr, ptr, ptr, ptr, ptr, ptr, ptr, ptr, ptr, ptr, ptr, ptr, ptr, ptr, ptr, ptr, ptr, ptr, ptr, ptr, ptr, ptr, i64, i64, i64, i64, i64, i64, i64, i64, i64, ptr, ptr, %struct.curl_mimepart, ptr, ptr, ptr, i64, %struct.ssl_config_data, %struct.ssl_config_data, ptr, i16, i8, i8, %struct.ssl_general_config, i32, i32, i32, [4 x i8], ptr, ptr, i64, i32, i8, i8, i8, i8, ptr, ptr, ptr, i32, [4 x i8], [74 x ptr], [8 x ptr], i32, i32, i32, [4 x i8], ptr, i32, [4 x i8], ptr, ptr, ptr, ptr, ptr, i32, i32, i32, i32, i32, i32, i32, i32, i64, ptr, ptr, i64, ptr, i64, ptr, ptr, ptr, ptr, i32, i16, i16, i16, i8, i8, i8, i8, i8, i8, i8, i8, i64, [6 x i8] }>
%struct.curl_mimepart = type { ptr, ptr, i32, i32, ptr, ptr, ptr, ptr, ptr, ptr, ptr, ptr, ptr, ptr, ptr, i64, %struct.mime_state, ptr, %struct.mime_encoder_state, i64 }
%struct.mime_state = type { i32, ptr, i64 }
%struct.mime_encoder_state = type { i64, i64, i64, [256 x i8] }
%struct.ssl_config_data = type { %struct.ssl_primary_config, i64, ptr, ptr, ptr, ptr, ptr, ptr, ptr, i16 }
%struct.ssl_general_config = type { i32 }
%struct.Progress = type { i64, %struct.pgrs_dir, %struct.pgrs_dir, i64, i64, i32, i32, i64, i64, i64, i64, i64, i64, i64, i64, i64, %struct.curltime, %struct.curltime, %struct.curltime, %struct.curltime, %struct.curltime, [6 x i64], [6 x %struct.curltime], i32, i8 }
%struct.pgrs_dir = type { i64, i64, i64, %struct.pgrs_measure }
%struct.pgrs_measure = type { %struct.curltime, i64 }
%struct.UrlState = type { %struct.curltime, i64, i64, %struct.dynbuf, ptr, i64, ptr, i32, i32, i32, ptr, i32, i64, i32, ptr, %struct.digestdata, %struct.digestdata, %struct.auth, %struct.auth, %struct.Curl_async, ptr, i8, %struct.curltime, %struct.Curl_tree, %struct.Curl_llist, [15 x %struct.time_node], ptr, ptr, i64, i64, i64, i64, [32 x i8], i64, ptr, ptr, ptr, %struct.urlpieces, ptr, ptr, ptr, ptr, ptr, i64, %struct.dynbuf, %struct.Curl_llist, [2 x %struct.curl_header], ptr, i32, ptr, ptr, %struct.store_netrc, %struct.dynamically_allocated_data, i8, i8, i8, i8, i32 }
%struct.digestdata = type { ptr, ptr, ptr, ptr, ptr, ptr, i32, i8, i8 }
%struct.auth = type { i64, i64, i64, i8 }
%struct.Curl_async = type { ptr, ptr, ptr, ptr, i32, i32, i8 }
%struct.Curl_tree = type { ptr, ptr, ptr, ptr, %struct.curltime, ptr }
%struct.time_node = type { %struct.Curl_llist_node, %struct.curltime, i32 }
%struct.urlpieces = type { ptr, ptr, ptr, ptr, ptr, ptr, ptr, ptr }
%struct.curl_header = type { ptr, ptr, i64, i64, i32, ptr }
%struct.store_netrc = type { %struct.dynbuf, ptr, i8 }
%struct.dynamically_allocated_data = type { ptr, ptr, ptr, ptr, ptr, ptr, ptr, ptr, ptr, ptr, ptr, ptr, ptr, ptr }
%struct.PureInfo = type { i32, i32, i32, i64, i64, i64, i64, i64, i64, i64, ptr, ptr, i64, i32, %struct.ip_quadruple, i32, ptr, i32, %struct.curl_certinfo, i32, i8 }
%struct.curl_certinfo = type { i32, ptr }
%struct.curl_tlssessioninfo = type { i32, ptr }
%struct.pop3_conn = type { %struct.pingpong, i32, i64, i64, %struct.SASL, ptr, i8, i8, i8 }
%struct.SASL = type { ptr, i32, ptr, i16, i16, i16, i8 }
%struct.curl_trc_feat = type { ptr, i32 }

@.str.9 = private unnamed_addr constant [45 x i8] c"No known authentication mechanisms supported\00", align 1
@.str.12 = private unnamed_addr constant [8 x i8] c"USER %s\00", align 1
@.str.13 = private unnamed_addr constant [1 x i8] zeroinitializer, align 1

; Function Attrs: nounwind uwtable
define internal i32 @pop3_perform_user(ptr noundef %0, ptr noundef %1) #0 {
  %3 = alloca i32, align 4
  %4 = alloca ptr, align 8
  %5 = alloca ptr, align 8
  %6 = alloca i32, align 4
  %7 = alloca i32, align 4
  store ptr %0, ptr %4, align 8, !tbaa !3
  store ptr %1, ptr %5, align 8, !tbaa !8
  call void @llvm.lifetime.start.p0(i64 4, ptr %6) #4
  store i32 0, ptr %6, align 4, !tbaa !10
  %8 = load ptr, ptr %4, align 8, !tbaa !3
  %9 = getelementptr inbounds nuw %struct.Curl_easy, ptr %8, i32 0, i32 21
  %10 = getelementptr inbounds nuw %struct.UrlState, ptr %9, i32 0, i32 52
  %11 = getelementptr inbounds nuw %struct.dynamically_allocated_data, ptr %10, i32 0, i32 9
  %12 = load ptr, ptr %11, align 8, !tbaa !148
  %13 = icmp ne ptr %12, null
  br i1 %13, label %17, label %14

14:                                               ; preds = %2
  %15 = load ptr, ptr %4, align 8, !tbaa !3
  call void @pop3_state(ptr noundef %15, i32 noundef 0)
  %16 = load i32, ptr %6, align 4, !tbaa !10
  store i32 %16, ptr %3, align 4
  store i32 1, ptr %7, align 4
  br label %40

17:                                               ; preds = %2
  %18 = load ptr, ptr %4, align 8, !tbaa !3
  %19 = load ptr, ptr %5, align 8, !tbaa !8
  %20 = getelementptr inbounds nuw %struct.connectdata, ptr %19, i32 0, i32 43
  %21 = getelementptr inbounds nuw %struct.pop3_conn, ptr %20, i32 0, i32 0
  %22 = load ptr, ptr %5, align 8, !tbaa !8
  %23 = getelementptr inbounds nuw %struct.connectdata, ptr %22, i32 0, i32 16
  %24 = load ptr, ptr %23, align 8, !tbaa !152
  %25 = icmp ne ptr %24, null
  br i1 %25, label %26, label %30

26:                                               ; preds = %17
  %27 = load ptr, ptr %5, align 8, !tbaa !8
  %28 = getelementptr inbounds nuw %struct.connectdata, ptr %27, i32 0, i32 16
  %29 = load ptr, ptr %28, align 8, !tbaa !152
  br label %31

30:                                               ; preds = %17
  br label %31

31:                                               ; preds = %30, %26
  %32 = phi ptr [ %29, %26 ], [ @.str.13, %30 ]
  %33 = call i32 (ptr, ptr, ptr, ...) @Curl_pp_sendf(ptr noundef %18, ptr noundef %21, ptr noundef @.str.12, ptr noundef %32)
  store i32 %33, ptr %6, align 4, !tbaa !10
  %34 = load i32, ptr %6, align 4, !tbaa !10
  %35 = icmp ne i32 %34, 0
  br i1 %35, label %38, label %36

36:                                               ; preds = %31
  %37 = load ptr, ptr %4, align 8, !tbaa !3
  call void @pop3_state(ptr noundef %37, i32 noundef 7)
  br label %38

38:                                               ; preds = %36, %31
  %39 = load i32, ptr %6, align 4, !tbaa !10
  store i32 %39, ptr %3, align 4
  store i32 1, ptr %7, align 4
  br label %40

40:                                               ; preds = %38, %14
  call void @llvm.lifetime.end.p0(i64 4, ptr %6) #4
  %41 = load i32, ptr %3, align 4
  ret i32 %41
}

; Function Attrs: nounwind uwtable
define internal void @pop3_state(ptr noundef %0, i32 noundef %1) #0 {
  %3 = alloca ptr, align 8
  %4 = alloca i32, align 4
  %5 = alloca ptr, align 8
  store ptr %0, ptr %3, align 8, !tbaa !3
  store i32 %1, ptr %4, align 4, !tbaa !10
  call void @llvm.lifetime.start.p0(i64 8, ptr %5) #4
  %6 = load ptr, ptr %3, align 8, !tbaa !3
  %7 = getelementptr inbounds nuw %struct.Curl_easy, ptr %6, i32 0, i32 3
  %8 = load ptr, ptr %7, align 8, !tbaa !19
  %9 = getelementptr inbounds nuw %struct.connectdata, ptr %8, i32 0, i32 43
  store ptr %9, ptr %5, align 8, !tbaa !91
  %10 = load i32, ptr %4, align 4, !tbaa !10
  %11 = load ptr, ptr %5, align 8, !tbaa !91
  %12 = getelementptr inbounds nuw %struct.pop3_conn, ptr %11, i32 0, i32 1
  store i32 %10, ptr %12, align 8, !tbaa !105
  call void @llvm.lifetime.end.p0(i64 8, ptr %5) #4
  ret void
}

; Function Attrs: nounwind uwtable
define internal i32 @pop3_perform_authentication(ptr noundef %0, ptr noundef %1) #0 {
  %3 = alloca i32, align 4
  %4 = alloca ptr, align 8
  %5 = alloca ptr, align 8
  %6 = alloca i32, align 4
  %7 = alloca ptr, align 8
  %8 = alloca i32, align 4
  %9 = alloca i32, align 4
  store ptr %0, ptr %4, align 8, !tbaa !3
  store ptr %1, ptr %5, align 8, !tbaa !8
  call void @llvm.lifetime.start.p0(i64 4, ptr %6) #4
  store i32 0, ptr %6, align 4, !tbaa !10
  call void @llvm.lifetime.start.p0(i64 8, ptr %7) #4
  %10 = load ptr, ptr %5, align 8, !tbaa !8
  %11 = getelementptr inbounds nuw %struct.connectdata, ptr %10, i32 0, i32 43
  store ptr %11, ptr %7, align 8, !tbaa !91
  call void @llvm.lifetime.start.p0(i64 4, ptr %8) #4
  store i32 0, ptr %8, align 4, !tbaa !10
  %12 = load ptr, ptr %7, align 8, !tbaa !91
  %13 = getelementptr inbounds nuw %struct.pop3_conn, ptr %12, i32 0, i32 4
  %14 = load ptr, ptr %4, align 8, !tbaa !3
  %15 = call zeroext i1 @Curl_sasl_can_authenticate(ptr noundef %13, ptr noundef %14)
  br i1 %15, label %19, label %16

16:                                               ; preds = %2
  %17 = load ptr, ptr %4, align 8, !tbaa !3
  call void @pop3_state(ptr noundef %17, i32 noundef 0)
  %18 = load i32, ptr %6, align 4, !tbaa !10
  store i32 %18, ptr %3, align 4
  store i32 1, ptr %9, align 4
  br label %119

19:                                               ; preds = %2
  %20 = load ptr, ptr %7, align 8, !tbaa !91
  %21 = getelementptr inbounds nuw %struct.pop3_conn, ptr %20, i32 0, i32 6
  %22 = load i8, ptr %21, align 8, !tbaa !135
  %23 = zext i8 %22 to i32
  %24 = load ptr, ptr %7, align 8, !tbaa !91
  %25 = getelementptr inbounds nuw %struct.pop3_conn, ptr %24, i32 0, i32 7
  %26 = load i8, ptr %25, align 1, !tbaa !99
  %27 = zext i8 %26 to i32
  %28 = and i32 %23, %27
  %29 = and i32 %28, 4
  %30 = icmp ne i32 %29, 0
  br i1 %30, label %31, label %45

31:                                               ; preds = %19
  %32 = load ptr, ptr %7, align 8, !tbaa !91
  %33 = getelementptr inbounds nuw %struct.pop3_conn, ptr %32, i32 0, i32 4
  %34 = load ptr, ptr %4, align 8, !tbaa !3
  %35 = call i32 @Curl_sasl_start(ptr noundef %33, ptr noundef %34, i1 noundef zeroext false, ptr noundef %8)
  store i32 %35, ptr %6, align 4, !tbaa !10
  %36 = load i32, ptr %6, align 4, !tbaa !10
  %37 = icmp ne i32 %36, 0
  br i1 %37, label %44, label %38

38:                                               ; preds = %31
  %39 = load i32, ptr %8, align 4, !tbaa !10
  %40 = icmp eq i32 %39, 1
  br i1 %40, label %41, label %43

41:                                               ; preds = %38
  %42 = load ptr, ptr %4, align 8, !tbaa !3
  call void @pop3_state(ptr noundef %42, i32 noundef 5)
  br label %43

43:                                               ; preds = %41, %38
  br label %44

44:                                               ; preds = %43, %31
  br label %45

45:                                               ; preds = %44, %19
  %46 = load i32, ptr %6, align 4, !tbaa !10
  %47 = icmp ne i32 %46, 0
  br i1 %47, label %117, label %48

48:                                               ; preds = %45
  %49 = load i32, ptr %8, align 4, !tbaa !10
  %50 = icmp eq i32 %49, 0
  br i1 %50, label %51, label %117

51:                                               ; preds = %48
  %52 = load ptr, ptr %7, align 8, !tbaa !91
  %53 = getelementptr inbounds nuw %struct.pop3_conn, ptr %52, i32 0, i32 6
  %54 = load i8, ptr %53, align 8, !tbaa !135
  %55 = zext i8 %54 to i32
  %56 = load ptr, ptr %7, align 8, !tbaa !91
  %57 = getelementptr inbounds nuw %struct.pop3_conn, ptr %56, i32 0, i32 7
  %58 = load i8, ptr %57, align 1, !tbaa !99
  %59 = zext i8 %58 to i32
  %60 = and i32 %55, %59
  %61 = and i32 %60, 2
  %62 = icmp ne i32 %61, 0
  br i1 %62, label %63, label %67

63:                                               ; preds = %51
  %64 = load ptr, ptr %4, align 8, !tbaa !3
  %65 = load ptr, ptr %5, align 8, !tbaa !8
  %66 = call i32 @pop3_perform_apop(ptr noundef %64, ptr noundef %65)
  store i32 %66, ptr %6, align 4, !tbaa !10
  br label %116

67:                                               ; preds = %51
  %68 = load ptr, ptr %7, align 8, !tbaa !91
  %69 = getelementptr inbounds nuw %struct.pop3_conn, ptr %68, i32 0, i32 6
  %70 = load i8, ptr %69, align 8, !tbaa !135
  %71 = zext i8 %70 to i32
  %72 = load ptr, ptr %7, align 8, !tbaa !91
  %73 = getelementptr inbounds nuw %struct.pop3_conn, ptr %72, i32 0, i32 7
  %74 = load i8, ptr %73, align 1, !tbaa !99
  %75 = zext i8 %74 to i32
  %76 = and i32 %71, %75
  %77 = and i32 %76, 1
  %78 = icmp ne i32 %77, 0
  br i1 %78, label %79, label %83

79:                                               ; preds = %67
  %80 = load ptr, ptr %4, align 8, !tbaa !3
  %81 = load ptr, ptr %5, align 8, !tbaa !8
  %82 = call i32 @pop3_perform_user(ptr noundef %80, ptr noundef %81)
  store i32 %82, ptr %6, align 4, !tbaa !10
  br label %115

83:                                               ; preds = %67
  br label %84

84:                                               ; preds = %83
  %85 = load ptr, ptr %4, align 8, !tbaa !3
  %86 = icmp ne ptr %85, null
  br i1 %86, label %87, label %112

87:                                               ; preds = %84
  %88 = load ptr, ptr %4, align 8, !tbaa !3
  %89 = getelementptr inbounds nuw %struct.Curl_easy, ptr %88, i32 0, i32 16
  %90 = getelementptr inbounds nuw %struct.UserDefined, ptr %89, i32 0, i32 119
  %91 = load i64, ptr %90, align 2
  %92 = lshr i64 %91, 31
  %93 = and i64 %92, 1
  %94 = trunc i64 %93 to i32
  %95 = icmp ne i32 %94, 0
  br i1 %95, label %96, label %112

96:                                               ; preds = %87
  %97 = load ptr, ptr %4, align 8, !tbaa !3
  %98 = getelementptr inbounds nuw %struct.Curl_easy, ptr %97, i32 0, i32 21
  %99 = getelementptr inbounds nuw %struct.UrlState, ptr %98, i32 0, i32 50
  %100 = load ptr, ptr %99, align 8, !tbaa !145
  %101 = icmp ne ptr %100, null
  br i1 %101, label %102, label %110

102:                                              ; preds = %96
  %103 = load ptr, ptr %4, align 8, !tbaa !3
  %104 = getelementptr inbounds nuw %struct.Curl_easy, ptr %103, i32 0, i32 21
  %105 = getelementptr inbounds nuw %struct.UrlState, ptr %104, i32 0, i32 50
  %106 = load ptr, ptr %105, align 8, !tbaa !145
  %107 = getelementptr inbounds nuw %struct.curl_trc_feat, ptr %106, i32 0, i32 1
  %108 = load i32, ptr %107, align 8, !tbaa !146
  %109 = icmp sge i32 %108, 1
  br i1 %109, label %110, label %112

110:                                              ; preds = %102, %96
  %111 = load ptr, ptr %4, align 8, !tbaa !3
  call void (ptr, ptr, ...) @Curl_infof(ptr noundef %111, ptr noundef @.str.9)
  br label %112

112:                                              ; preds = %110, %102, %87, %84
  br label %113

113:                                              ; preds = %112
  br label %114

114:                                              ; preds = %113
  store i32 67, ptr %6, align 4, !tbaa !10
  br label %115

115:                                              ; preds = %114, %79
  br label %116

116:                                              ; preds = %115, %63
  br label %117

117:                                              ; preds = %116, %48, %45
  %118 = load i32, ptr %6, align 4, !tbaa !10
  store i32 %118, ptr %3, align 4
  store i32 1, ptr %9, align 4
  br label %119

119:                                              ; preds = %117, %16
  call void @llvm.lifetime.end.p0(i64 4, ptr %8) #4
  call void @llvm.lifetime.end.p0(i64 8, ptr %7) #4
  call void @llvm.lifetime.end.p0(i64 4, ptr %6) #4
  %120 = load i32, ptr %3, align 4
  ret i32 %120
}