; Function Attrs: nounwind uwtable
define internal fastcc i32 @pop3_perform_authentication(ptr noundef %0, ptr noundef %1) unnamed_addr #0 {
  %3 = alloca i32, align 4
  call void @llvm.lifetime.start.p0(i64 4, ptr nonnull %3) #6
  store i32 0, ptr %3, align 4, !tbaa !125
  %4 = getelementptr inbounds nuw i8, ptr %1, i64 1272
  %5 = tail call zeroext i1 @Curl_sasl_can_authenticate(ptr noundef nonnull %4, ptr noundef %0) #6
  br i1 %5, label %9, label %6

6:                                                ; preds = %2
  %7 = getelementptr i8, ptr %0, i64 24
  %.val38 = load ptr, ptr %7, align 8, !tbaa !83
  %8 = getelementptr inbounds nuw i8, ptr %.val38, i64 1248
  store i32 0, ptr %8, align 8, !tbaa !86
  br label %pop3_perform_user.exit

9:                                                ; preds = %2
  %10 = getelementptr inbounds nuw i8, ptr %1, i64 1312
  %11 = load i8, ptr %10, align 8, !tbaa !126
  %12 = getelementptr inbounds nuw i8, ptr %1, i64 1313
  %13 = load i8, ptr %12, align 1, !tbaa !101
  %14 = and i8 %11, 4
  %15 = and i8 %14, %13
  %.not = icmp eq i8 %15, 0
  br i1 %.not, label %23, label %16

16:                                               ; preds = %9
  %17 = call i32 @Curl_sasl_start(ptr noundef nonnull %4, ptr noundef %0, i1 noundef zeroext false, ptr noundef nonnull %3) #6
  %18 = icmp eq i32 %17, 0
  %19 = load i32, ptr %3, align 4
  %20 = icmp eq i32 %19, 1
  %or.cond3 = select i1 %18, i1 %20, i1 false
  br i1 %or.cond3, label %.thread, label %23

.thread:                                          ; preds = %16
  %21 = getelementptr i8, ptr %0, i64 24
  %.val = load ptr, ptr %21, align 8, !tbaa !83
  %22 = getelementptr inbounds nuw i8, ptr %.val, i64 1248
  store i32 5, ptr %22, align 8, !tbaa !86
  br label %pop3_perform_user.exit

23:                                               ; preds = %16, %9
  %24 = phi i32 [ %19, %16 ], [ 0, %9 ]
  %.029 = phi i32 [ %17, %16 ], [ 0, %9 ]
  %25 = icmp eq i32 %.029, 0
  %26 = icmp eq i32 %24, 0
  %or.cond = select i1 %25, i1 %26, i1 false
  br i1 %or.cond, label %27, label %pop3_perform_user.exit

27:                                               ; preds = %23
  %28 = load i8, ptr %10, align 8, !tbaa !126
  %29 = load i8, ptr %12, align 1, !tbaa !101
  %30 = and i8 %29, %28
  %31 = zext i8 %30 to i32
  %32 = and i32 %31, 2
  %.not33 = icmp eq i32 %32, 0
  br i1 %.not33, label %35, label %33

33:                                               ; preds = %27
  %34 = call fastcc i32 @pop3_perform_apop(ptr noundef %0, ptr noundef nonnull %1)
  br label %pop3_perform_user.exit

35:                                               ; preds = %27
  %36 = and i32 %31, 1
  %.not34 = icmp eq i32 %36, 0
  br i1 %.not34, label %47, label %37

37:                                               ; preds = %35
  %38 = getelementptr inbounds nuw i8, ptr %0, i64 4992
  %39 = load ptr, ptr %38, align 8, !tbaa !131
  %.not.i = icmp eq ptr %39, null
  br i1 %.not.i, label %.sink.split.i, label %40

40:                                               ; preds = %37
  %41 = getelementptr inbounds nuw i8, ptr %1, i64 1088
  %42 = getelementptr inbounds nuw i8, ptr %1, i64 480
  %43 = load ptr, ptr %42, align 8, !tbaa !132
  %.not11.i = icmp eq ptr %43, null
  %spec.select.i = select i1 %.not11.i, ptr @.str.13, ptr %43
  %44 = call i32 (ptr, ptr, ptr, ...) @Curl_pp_sendf(ptr noundef nonnull %0, ptr noundef nonnull %41, ptr noundef nonnull @.str.12, ptr noundef nonnull %spec.select.i) #6
  %.not12.i = icmp eq i32 %44, 0
  br i1 %.not12.i, label %.sink.split.i, label %pop3_perform_user.exit

.sink.split.i:                                    ; preds = %40, %37
  %.sink.i = phi i32 [ 0, %37 ], [ 7, %40 ]
  %45 = getelementptr i8, ptr %0, i64 24
  %.val.i = load ptr, ptr %45, align 8, !tbaa !83
  %46 = getelementptr inbounds nuw i8, ptr %.val.i, i64 1248
  store i32 %.sink.i, ptr %46, align 8, !tbaa !86
  br label %pop3_perform_user.exit

47:                                               ; preds = %35
  %.not35 = icmp eq ptr %0, null
  br i1 %.not35, label %pop3_perform_user.exit, label %48

48:                                               ; preds = %47
  %49 = getelementptr inbounds nuw i8, ptr %0, i64 2658
  %50 = load i64, ptr %49, align 2
  %51 = and i64 %50, 2147483648
  %.not36 = icmp eq i64 %51, 0
  br i1 %.not36, label %pop3_perform_user.exit, label %52

52:                                               ; preds = %48
  %53 = getelementptr inbounds nuw i8, ptr %0, i64 4864
  %54 = load ptr, ptr %53, align 8, !tbaa !138
  %.not37 = icmp eq ptr %54, null
  br i1 %.not37, label %59, label %55

55:                                               ; preds = %52
  %56 = getelementptr inbounds nuw i8, ptr %54, i64 8
  %57 = load i32, ptr %56, align 8, !tbaa !139
  %58 = icmp sgt i32 %57, 0
  br i1 %58, label %59, label %pop3_perform_user.exit

59:                                               ; preds = %55, %52
  call void (ptr, ptr, ...) @Curl_infof(ptr noundef nonnull %0, ptr noundef nonnull @.str.9) #6
  br label %pop3_perform_user.exit

pop3_perform_user.exit:                           ; preds = %.thread, %.sink.split.i, %40, %23, %33, %59, %55, %48, %47, %6
  %.0 = phi i32 [ 0, %6 ], [ %34, %33 ], [ %.029, %23 ], [ 67, %59 ], [ 67, %55 ], [ 67, %48 ], [ 67, %47 ], [ %44, %40 ], [ 0, %.sink.split.i ], [ 0, %.thread ]
  call void @llvm.lifetime.end.p0(i64 4, ptr nonnull %3) #6
  ret i32 %.0
}